target datalayout = "e-m:e-p270:32:32-p271:32:32-p272:64:64-i64:64-i128:128-f80:128-n8:16:32:64-S128"
target triple = "x86_64-pc-linux-gnu"

@.str.356 = private unnamed_addr constant [4 x i8] c"OnI\00", align 1
@.str.357 = private unnamed_addr constant [5 x i8] c"(Ni)\00", align 1

; Function Attrs: inlinehint nounwind uwtable
define internal void @Py_DECREF(ptr noundef %0) #3 {
  %2 = alloca ptr, align 8
  store ptr %0, ptr %2, align 8, !tbaa !3
  %3 = load ptr, ptr %2, align 8, !tbaa !3
  call void @_Py_DecRef(ptr noundef %3)
  ret void
}

; Function Attrs: nounwind uwtable
define internal ptr @unicode_writechar(ptr noundef %0, ptr noundef %1) #0 {
  %3 = alloca ptr, align 8
  %4 = alloca ptr, align 8
  %5 = alloca ptr, align 8
  %6 = alloca ptr, align 8
  %7 = alloca ptr, align 8
  %8 = alloca i64, align 8
  %9 = alloca i32, align 4
  %10 = alloca i32, align 4
  %11 = alloca i32, align 4
  store ptr %0, ptr %4, align 8, !tbaa !3
  store ptr %1, ptr %5, align 8, !tbaa !3
  call void @llvm.lifetime.start.p0(i64 8, ptr %6) #7
  call void @llvm.lifetime.start.p0(i64 8, ptr %7) #7
  call void @llvm.lifetime.start.p0(i64 8, ptr %8) #7
  call void @llvm.lifetime.start.p0(i64 4, ptr %9) #7
  call void @llvm.lifetime.start.p0(i64 4, ptr %10) #7
  %12 = load ptr, ptr %5, align 8, !tbaa !3
  %13 = call i32 (ptr, ptr, ...) @PyArg_ParseTuple(ptr noundef %12, ptr noundef @.str.356, ptr noundef %6, ptr noundef %8, ptr noundef %9)
  %14 = icmp ne i32 %13, 0
  br i1 %14, label %16, label %15

15:                                               ; preds = %2
  store ptr null, ptr %3, align 8
  store i32 1, ptr %11, align 4
  br label %48

16:                                               ; preds = %2
  br label %17

17:                                               ; preds = %16
  %18 = load ptr, ptr %6, align 8, !tbaa !3
  %19 = call ptr @Py_GetConstantBorrowed(i32 noundef 0)
  %20 = icmp eq ptr %18, %19
  br i1 %20, label %21, label %22

21:                                               ; preds = %17
  store ptr null, ptr %6, align 8, !tbaa !3
  br label %22

22:                                               ; preds = %21, %17
  br label %23

23:                                               ; preds = %22
  br label %24

24:                                               ; preds = %23
  %25 = load ptr, ptr %6, align 8, !tbaa !3
  %26 = call ptr @unicode_copy(ptr noundef %25)
  store ptr %26, ptr %7, align 8, !tbaa !3
  %27 = icmp ne ptr %26, null
  br i1 %27, label %32, label %28

28:                                               ; preds = %24
  %29 = load ptr, ptr %6, align 8, !tbaa !3
  %30 = icmp ne ptr %29, null
  br i1 %30, label %31, label %32

31:                                               ; preds = %28
  store ptr null, ptr %3, align 8
  store i32 1, ptr %11, align 4
  br label %48

32:                                               ; preds = %28, %24
  %33 = load ptr, ptr %7, align 8, !tbaa !3
  %34 = load i64, ptr %8, align 8, !tbaa !12
  %35 = load i32, ptr %9, align 4, !tbaa !10
  %36 = call i32 @PyUnicode_WriteChar(ptr noundef %33, i64 noundef %34, i32 noundef %35)
  store i32 %36, ptr %10, align 4, !tbaa !10
  %37 = load i32, ptr %10, align 4, !tbaa !10
  %38 = icmp eq i32 %37, -1
  br i1 %38, label %39, label %44

39:                                               ; preds = %32
  %40 = call ptr @PyErr_Occurred()
  %41 = icmp ne ptr %40, null
  br i1 %41, label %42, label %44

42:                                               ; preds = %39
  %43 = load ptr, ptr %7, align 8, !tbaa !3
  call void @Py_DECREF(ptr noundef %43)
  store ptr null, ptr %3, align 8
  store i32 1, ptr %11, align 4
  br label %48

44:                                               ; preds = %39, %32
  %45 = load ptr, ptr %7, align 8, !tbaa !3
  %46 = load i32, ptr %10, align 4, !tbaa !10
  %47 = call ptr (ptr, ...) @Py_BuildValue(ptr noundef @.str.357, ptr noundef %45, i32 noundef %46)
  store ptr %47, ptr %3, align 8
  store i32 1, ptr %11, align 4
  br label %48

48:                                               ; preds = %44, %42, %31, %15
  call void @llvm.lifetime.end.p0(i64 4, ptr %10) #7
  call void @llvm.lifetime.end.p0(i64 4, ptr %9) #7
  call void @llvm.lifetime.end.p0(i64 8, ptr %8) #7
  call void @llvm.lifetime.end.p0(i64 8, ptr %7) #7
  call void @llvm.lifetime.end.p0(i64 8, ptr %6) #7
  %49 = load ptr, ptr %3, align 8
  ret ptr %49
}