; Function Attrs: nounwind uwtable
define internal ptr @unicode_writechar(ptr readnone captures(none) %0, ptr noundef %1) #0 {
  %3 = alloca ptr, align 8
  %4 = alloca i64, align 8
  %5 = alloca i32, align 4
  call void @llvm.lifetime.start.p0(i64 8, ptr nonnull %3) #4
  call void @llvm.lifetime.start.p0(i64 8, ptr nonnull %4) #4
  call void @llvm.lifetime.start.p0(i64 4, ptr nonnull %5) #4
  %6 = call i32 (ptr, ptr, ...) @PyArg_ParseTuple(ptr noundef %1, ptr noundef nonnull @.str.356, ptr noundef nonnull %3, ptr noundef nonnull %4, ptr noundef nonnull %5) #4
  %.not = icmp eq i32 %6, 0
  br i1 %.not, label %28, label %7

7:                                                ; preds = %2
  %8 = load ptr, ptr %3, align 8, !tbaa !8
  %9 = call ptr @Py_GetConstantBorrowed(i32 noundef 0) #4
  %10 = icmp eq ptr %8, %9
  br i1 %10, label %11, label %._crit_edge

._crit_edge:                                      ; preds = %7
  %.pre = load ptr, ptr %3, align 8, !tbaa !8
  br label %12

11:                                               ; preds = %7
  store ptr null, ptr %3, align 8, !tbaa !8
  br label %12

12:                                               ; preds = %._crit_edge, %11
  %13 = phi ptr [ %.pre, %._crit_edge ], [ null, %11 ]
  %14 = call fastcc ptr @unicode_copy(ptr noundef %13)
  %15 = icmp eq ptr %14, null
  %16 = load ptr, ptr %3, align 8
  %17 = icmp ne ptr %16, null
  %or.cond = select i1 %15, i1 %17, i1 false
  br i1 %or.cond, label %28, label %18

18:                                               ; preds = %12
  %19 = load i64, ptr %4, align 8, !tbaa !10
  %20 = load i32, ptr %5, align 4, !tbaa !12
  %21 = call i32 @PyUnicode_WriteChar(ptr noundef %14, i64 noundef %19, i32 noundef %20) #4
  %22 = icmp eq i32 %21, -1
  br i1 %22, label %23, label %26

23:                                               ; preds = %18
  %24 = call ptr @PyErr_Occurred() #4
  %.not7 = icmp eq ptr %24, null
  br i1 %.not7, label %26, label %25

25:                                               ; preds = %23
  call void @_Py_DecRef(ptr noundef %14) #4
  br label %28

26:                                               ; preds = %23, %18
  %27 = call ptr (ptr, ...) @Py_BuildValue(ptr noundef nonnull @.str.357, ptr noundef %14, i32 noundef %21) #4
  br label %28

28:                                               ; preds = %12, %2, %26, %25
  %.0 = phi ptr [ null, %25 ], [ %27, %26 ], [ null, %2 ], [ null, %12 ]
  call void @llvm.lifetime.end.p0(i64 4, ptr nonnull %5) #4
  call void @llvm.lifetime.end.p0(i64 8, ptr nonnull %4) #4
  call void @llvm.lifetime.end.p0(i64 8, ptr nonnull %3) #4
  ret ptr %.0
}